target datalayout = "e-m:e-p270:32:32-p271:32:32-p272:64:64-i64:64-i128:128-f80:128-n8:16:32:64-S128"
target triple = "x86_64-pc-linux-gnu"

%struct._object = type { %union.anon, ptr }
%union.anon = type { i64 }
%struct.testBufObject = type { %struct._object, ptr, i64 }

@.str.3 = private unnamed_addr constant [22 x i8] c"self->references >= 0\00", align 1
@.str.4 = private unnamed_addr constant [38 x i8] c"../cpython/Modules/_testcapi/buffer.c\00", align 1
@__PRETTY_FUNCTION__.testbuf_releasebuf = private unnamed_addr constant [54 x i8] c"void testbuf_releasebuf(testBufObject *, Py_buffer *)\00", align 1

; Function Attrs: nounwind uwtable
define internal void @testbuf_releasebuf(ptr noundef %0, ptr noundef %1) #0 {
  %3 = alloca ptr, align 8
  %4 = alloca ptr, align 8
  store ptr %0, ptr %3, align 8, !tbaa !8
  store ptr %1, ptr %4, align 8, !tbaa !8
  %5 = load ptr, ptr %3, align 8, !tbaa !8
  %6 = getelementptr inbounds nuw %struct.testBufObject, ptr %5, i32 0, i32 2
  %7 = load i64, ptr %6, align 8, !tbaa !28
  %8 = add i64 %7, -1
  store i64 %8, ptr %6, align 8, !tbaa !28
  %9 = load ptr, ptr %3, align 8, !tbaa !8
  %10 = getelementptr inbounds nuw %struct.testBufObject, ptr %9, i32 0, i32 2
  %11 = load i64, ptr %10, align 8, !tbaa !28
  %12 = icmp sge i64 %11, 0
  br i1 %12, label %13, label %14

13:                                               ; preds = %2
  br label %16

14:                                               ; preds = %2
  call void @__assert_fail(ptr noundef @.str.3, ptr noundef @.str.4, i32 noundef 68, ptr noundef @__PRETTY_FUNCTION__.testbuf_releasebuf) #7
  unreachable

15:                                               ; No predecessors!
  br label %16

16:                                               ; preds = %15, %13
  ret void
}