; Function Attrs: nounwind uwtable
define internal void @testbuf_releasebuf(ptr noundef captures(none) %0, ptr readnone captures(none) %1) #0 {
  %3 = getelementptr inbounds nuw i8, ptr %0, i64 24
  %4 = load i64, ptr %3, align 8, !tbaa !25
  %5 = add i64 %4, -1
  store i64 %5, ptr %3, align 8, !tbaa !25
  %6 = icmp sgt i64 %5, -1
  br i1 %6, label %8, label %7

7:                                                ; preds = %2
  tail call void @__assert_fail(ptr noundef nonnull @.str.3, ptr noundef nonnull @.str.4, i32 noundef 68, ptr noundef nonnull @__PRETTY_FUNCTION__.testbuf_releasebuf) #4
  unreachable

8:                                                ; preds = %2
  ret void
}